target datalayout = "e-m:e-p270:32:32-p271:32:32-p272:64:64-i64:64-i128:128-f80:128-n8:16:32:64-S128"
target triple = "x86_64-pc-linux-gnu"

%struct.file_type_subtype_info = type { ptr, ptr, ptr, ptr, i8, i64, ptr, ptr, ptr, ptr }
%struct.wtap_wslua_file_info = type { ptr, ptr }
%struct.wtap_dumper = type { ptr, i32, i32, i32, i32, i8, i64, ptr, ptr, ptr, ptr, ptr, ptr, ptr, ptr, ptr, ptr, ptr, ptr, ptr, i32, i32, i32 }

@file_type_subtype_table = internal global ptr null, align 8
@.str.154 = private unnamed_addr constant [3 x i8] c"wb\00", align 1

; Function Attrs: null_pointer_is_valid sspstrong uwtable
define internal i32 @wtap_dump_file_close(ptr noundef %0) #0 {
  %2 = alloca i32, align 4
  %3 = alloca ptr, align 8
  store ptr %0, ptr %3, align 8
  %4 = load ptr, ptr %3, align 8
  %5 = getelementptr inbounds nuw %struct.wtap_dumper, ptr %4, i32 0, i32 4
  %6 = load i32, ptr %5, align 4
  switch i32 %6, label %17 [
    i32 1, label %7
    i32 3, label %12
  ]

7:                                                ; preds = %1
  %8 = load ptr, ptr %3, align 8
  %9 = getelementptr inbounds nuw %struct.wtap_dumper, ptr %8, i32 0, i32 0
  %10 = load ptr, ptr %9, align 8
  %11 = call i32 @gzwfile_close(ptr noundef %10)
  store i32 %11, ptr %2, align 4
  br label %22

12:                                               ; preds = %1
  %13 = load ptr, ptr %3, align 8
  %14 = getelementptr inbounds nuw %struct.wtap_dumper, ptr %13, i32 0, i32 0
  %15 = load ptr, ptr %14, align 8
  %16 = call i32 @lz4wfile_close(ptr noundef %15)
  store i32 %16, ptr %2, align 4
  br label %22

17:                                               ; preds = %1
  %18 = load ptr, ptr %3, align 8
  %19 = getelementptr inbounds nuw %struct.wtap_dumper, ptr %18, i32 0, i32 0
  %20 = load ptr, ptr %19, align 8
  %21 = call i32 @fclose(ptr noundef %20)
  store i32 %21, ptr %2, align 4
  br label %22

22:                                               ; preds = %17, %12, %7
  %23 = load i32, ptr %2, align 4
  ret i32 %23
}

; Function Attrs: null_pointer_is_valid sspstrong uwtable
define internal zeroext i1 @wtap_dump_open_finish(ptr noundef %0, ptr noundef %1, ptr noundef %2) #0 {
  %4 = alloca i1, align 1
  %5 = alloca ptr, align 8
  %6 = alloca ptr, align 8
  %7 = alloca ptr, align 8
  %8 = alloca i32, align 4
  %9 = alloca i8, align 1
  %10 = alloca i32, align 4
  store ptr %0, ptr %5, align 8
  store ptr %1, ptr %6, align 8
  store ptr %2, ptr %7, align 8
  call void @llvm.lifetime.start.p0(i64 4, ptr %8) #12
  call void @llvm.lifetime.start.p0(i64 1, ptr %9) #12
  %11 = load ptr, ptr %5, align 8
  %12 = getelementptr inbounds nuw %struct.wtap_dumper, ptr %11, i32 0, i32 4
  %13 = load i32, ptr %12, align 4
  %14 = icmp ne i32 %13, 0
  br i1 %14, label %15, label %16

15:                                               ; preds = %3
  store i8 1, ptr %9, align 1
  br label %29

16:                                               ; preds = %3
  %17 = load ptr, ptr %5, align 8
  %18 = getelementptr inbounds nuw %struct.wtap_dumper, ptr %17, i32 0, i32 0
  %19 = load ptr, ptr %18, align 8
  %20 = call i32 @fileno(ptr noundef %19) #12
  store i32 %20, ptr %8, align 4
  %21 = load i32, ptr %8, align 4
  %22 = call i64 @lseek(i32 noundef %21, i64 noundef 1, i32 noundef 1) #12
  %23 = icmp eq i64 %22, -1
  br i1 %23, label %24, label %25

24:                                               ; preds = %16
  store i8 1, ptr %9, align 1
  br label %28

25:                                               ; preds = %16
  %26 = load i32, ptr %8, align 4
  %27 = call i64 @lseek(i32 noundef %26, i64 noundef 0, i32 noundef 0) #12
  store i8 0, ptr %9, align 1
  br label %28

28:                                               ; preds = %25, %24
  br label %29

29:                                               ; preds = %28, %15
  %30 = load ptr, ptr @file_type_subtype_table, align 8
  %31 = load ptr, ptr %5, align 8
  %32 = getelementptr inbounds nuw %struct.wtap_dumper, ptr %31, i32 0, i32 1
  %33 = load i32, ptr %32, align 8
  %34 = sext i32 %33 to i64
  %35 = getelementptr %struct.file_type_subtype_info, ptr %30, i64 %34
  %36 = getelementptr inbounds nuw %struct.file_type_subtype_info, ptr %35, i32 0, i32 4
  %37 = load i8, ptr %36, align 8, !range !10, !noundef !11
  %38 = trunc i8 %37 to i1
  br i1 %38, label %39, label %44

39:                                               ; preds = %29
  %40 = load i8, ptr %9, align 1, !range !10, !noundef !11
  %41 = trunc i8 %40 to i1
  br i1 %41, label %42, label %44

42:                                               ; preds = %39
  %43 = load ptr, ptr %6, align 8
  store i32 -5, ptr %43, align 4
  store i1 false, ptr %4, align 1
  store i32 1, ptr %10, align 4
  br label %82

44:                                               ; preds = %39, %29
  %45 = load ptr, ptr @file_type_subtype_table, align 8
  %46 = load ptr, ptr %5, align 8
  %47 = getelementptr inbounds nuw %struct.wtap_dumper, ptr %46, i32 0, i32 1
  %48 = load i32, ptr %47, align 8
  %49 = sext i32 %48 to i64
  %50 = getelementptr %struct.file_type_subtype_info, ptr %45, i64 %49
  %51 = getelementptr inbounds nuw %struct.file_type_subtype_info, ptr %50, i32 0, i32 9
  %52 = load ptr, ptr %51, align 8
  %53 = icmp ne ptr %52, null
  br i1 %53, label %54, label %67

54:                                               ; preds = %44
  %55 = load ptr, ptr @file_type_subtype_table, align 8
  %56 = load ptr, ptr %5, align 8
  %57 = getelementptr inbounds nuw %struct.wtap_dumper, ptr %56, i32 0, i32 1
  %58 = load i32, ptr %57, align 8
  %59 = sext i32 %58 to i64
  %60 = getelementptr %struct.file_type_subtype_info, ptr %55, i64 %59
  %61 = getelementptr inbounds nuw %struct.file_type_subtype_info, ptr %60, i32 0, i32 9
  %62 = load ptr, ptr %61, align 8
  %63 = getelementptr inbounds nuw %struct.wtap_wslua_file_info, ptr %62, i32 0, i32 1
  %64 = load ptr, ptr %63, align 8
  %65 = load ptr, ptr %5, align 8
  %66 = getelementptr inbounds nuw %struct.wtap_dumper, ptr %65, i32 0, i32 8
  store ptr %64, ptr %66, align 8
  br label %67

67:                                               ; preds = %54, %44
  %68 = load ptr, ptr @file_type_subtype_table, align 8
  %69 = load ptr, ptr %5, align 8
  %70 = getelementptr inbounds nuw %struct.wtap_dumper, ptr %69, i32 0, i32 1
  %71 = load i32, ptr %70, align 8
  %72 = sext i32 %71 to i64
  %73 = getelementptr %struct.file_type_subtype_info, ptr %68, i64 %72
  %74 = getelementptr inbounds nuw %struct.file_type_subtype_info, ptr %73, i32 0, i32 8
  %75 = load ptr, ptr %74, align 8
  %76 = load ptr, ptr %5, align 8
  %77 = load ptr, ptr %6, align 8
  %78 = load ptr, ptr %7, align 8
  %79 = call zeroext i1 %75(ptr noundef %76, ptr noundef %77, ptr noundef %78)
  br i1 %79, label %81, label %80

80:                                               ; preds = %67
  store i1 false, ptr %4, align 1
  store i32 1, ptr %10, align 4
  br label %82

81:                                               ; preds = %67
  store i1 true, ptr %4, align 1
  store i32 1, ptr %10, align 4
  br label %82

82:                                               ; preds = %81, %80, %42
  call void @llvm.lifetime.end.p0(i64 1, ptr %9) #12
  call void @llvm.lifetime.end.p0(i64 4, ptr %8) #12
  %83 = load i1, ptr %4, align 1
  ret i1 %83
}

; Function Attrs: null_pointer_is_valid sspstrong uwtable
define internal ptr @wtap_dump_file_fdopen(ptr noundef %0, i32 noundef %1) #0 {
  %3 = alloca ptr, align 8
  %4 = alloca ptr, align 8
  %5 = alloca i32, align 4
  store ptr %0, ptr %4, align 8
  store i32 %1, ptr %5, align 4
  %6 = load ptr, ptr %4, align 8
  %7 = getelementptr inbounds nuw %struct.wtap_dumper, ptr %6, i32 0, i32 4
  %8 = load i32, ptr %7, align 4
  switch i32 %8, label %15 [
    i32 1, label %9
    i32 3, label %12
  ]

9:                                                ; preds = %2
  %10 = load i32, ptr %5, align 4
  %11 = call ptr @gzwfile_fdopen(i32 noundef %10)
  store ptr %11, ptr %3, align 8
  br label %18

12:                                               ; preds = %2
  %13 = load i32, ptr %5, align 4
  %14 = call ptr @lz4wfile_fdopen(i32 noundef %13)
  store ptr %14, ptr %3, align 8
  br label %18

15:                                               ; preds = %2
  %16 = load i32, ptr %5, align 4
  %17 = call noalias ptr @fdopen(i32 noundef %16, ptr noundef @.str.154) #12
  store ptr %17, ptr %3, align 8
  br label %18

18:                                               ; preds = %15, %12, %9
  %19 = load ptr, ptr %3, align 8
  ret ptr %19
}

; Function Attrs: null_pointer_is_valid sspstrong uwtable
define ptr @wtap_dump_fdopen(i32 noundef %0, i32 noundef %1, i32 noundef %2, ptr noundef %3, ptr noundef %4, ptr noundef %5) #0 {
  %7 = alloca ptr, align 8
  %8 = alloca i32, align 4
  %9 = alloca i32, align 4
  %10 = alloca i32, align 4
  %11 = alloca ptr, align 8
  %12 = alloca ptr, align 8
  %13 = alloca ptr, align 8
  %14 = alloca ptr, align 8
  %15 = alloca ptr, align 8
  %16 = alloca i32, align 4
  store i32 %0, ptr %8, align 4
  store i32 %1, ptr %9, align 4
  store i32 %2, ptr %10, align 4
  store ptr %3, ptr %11, align 8
  store ptr %4, ptr %12, align 8
  store ptr %5, ptr %13, align 8
  call void @llvm.lifetime.start.p0(i64 8, ptr %14) #12
  call void @llvm.lifetime.start.p0(i64 8, ptr %15) #12
  %17 = load ptr, ptr %12, align 8
  store i32 0, ptr %17, align 4
  %18 = load ptr, ptr %13, align 8
  store ptr null, ptr %18, align 8
  %19 = load i32, ptr %9, align 4
  %20 = load i32, ptr %10, align 4
  %21 = load ptr, ptr %11, align 8
  %22 = load ptr, ptr %12, align 8
  %23 = call ptr @wtap_dump_init_dumper(i32 noundef %19, i32 noundef %20, ptr noundef %21, ptr noundef %22)
  store ptr %23, ptr %14, align 8
  %24 = load ptr, ptr %14, align 8
  %25 = icmp eq ptr %24, null
  br i1 %25, label %26, label %27

26:                                               ; preds = %6
  store ptr null, ptr %7, align 8
  store i32 1, ptr %16, align 4
  br label %53

27:                                               ; preds = %6
  %28 = call ptr @__errno_location() #15
  store i32 -6, ptr %28, align 4
  %29 = load ptr, ptr %14, align 8
  %30 = load i32, ptr %8, align 4
  %31 = call ptr @wtap_dump_file_fdopen(ptr noundef %29, i32 noundef %30)
  store ptr %31, ptr %15, align 8
  %32 = load ptr, ptr %15, align 8
  %33 = icmp eq ptr %32, null
  br i1 %33, label %34, label %39

34:                                               ; preds = %27
  %35 = call ptr @__errno_location() #15
  %36 = load i32, ptr %35, align 4
  %37 = load ptr, ptr %12, align 8
  store i32 %36, ptr %37, align 4
  %38 = load ptr, ptr %14, align 8
  call void @g_free(ptr noundef %38)
  store ptr null, ptr %7, align 8
  store i32 1, ptr %16, align 4
  br label %53

39:                                               ; preds = %27
  %40 = load ptr, ptr %15, align 8
  %41 = load ptr, ptr %14, align 8
  %42 = getelementptr inbounds nuw %struct.wtap_dumper, ptr %41, i32 0, i32 0
  store ptr %40, ptr %42, align 8
  %43 = load ptr, ptr %14, align 8
  %44 = load ptr, ptr %12, align 8
  %45 = load ptr, ptr %13, align 8
  %46 = call zeroext i1 @wtap_dump_open_finish(ptr noundef %43, ptr noundef %44, ptr noundef %45)
  br i1 %46, label %51, label %47

47:                                               ; preds = %39
  %48 = load ptr, ptr %14, align 8
  %49 = call i32 @wtap_dump_file_close(ptr noundef %48)
  %50 = load ptr, ptr %14, align 8
  call void @g_free(ptr noundef %50)
  store ptr null, ptr %7, align 8
  store i32 1, ptr %16, align 4
  br label %53

51:                                               ; preds = %39
  %52 = load ptr, ptr %14, align 8
  store ptr %52, ptr %7, align 8
  store i32 1, ptr %16, align 4
  br label %53

53:                                               ; preds = %51, %47, %34, %26
  call void @llvm.lifetime.end.p0(i64 8, ptr %15) #12
  call void @llvm.lifetime.end.p0(i64 8, ptr %14) #12
  %54 = load ptr, ptr %7, align 8
  ret ptr %54
}