; Function Attrs: null_pointer_is_valid sspstrong uwtable
define noundef ptr @wtap_dump_fdopen(i32 noundef %0, i32 noundef %1, i32 noundef %2, ptr noundef %3, ptr noundef initializes((0, 4)) %4, ptr noundef initializes((0, 8)) %5) local_unnamed_addr #0 {
  store i32 0, ptr %4, align 4
  store ptr null, ptr %5, align 8
  %7 = tail call fastcc ptr @wtap_dump_init_dumper(i32 noundef %1, i32 noundef %2, ptr noundef %3, ptr noundef %4)
  %8 = icmp eq ptr %7, null
  br i1 %8, label %61, label %9

9:                                                ; preds = %6
  %10 = tail call ptr @__errno_location() #25
  store i32 -6, ptr %10, align 4
  %11 = getelementptr i8, ptr %7, i64 20
  %.val = load i32, ptr %11, align 4
  switch i32 %.val, label %16 [
    i32 1, label %12
    i32 3, label %14
  ]

12:                                               ; preds = %9
  %13 = tail call ptr @gzwfile_fdopen(i32 noundef %0)
  br label %wtap_dump_file_fdopen.exit

14:                                               ; preds = %9
  %15 = tail call ptr @lz4wfile_fdopen(i32 noundef %0)
  br label %wtap_dump_file_fdopen.exit

16:                                               ; preds = %9
  %17 = tail call noalias ptr @fdopen(i32 noundef %0, ptr noundef nonnull @.str.154) #24
  br label %wtap_dump_file_fdopen.exit

wtap_dump_file_fdopen.exit:                       ; preds = %12, %14, %16
  %.0.i = phi ptr [ %17, %16 ], [ %15, %14 ], [ %13, %12 ]
  %18 = icmp eq ptr %.0.i, null
  br i1 %18, label %19, label %21

19:                                               ; preds = %wtap_dump_file_fdopen.exit
  %20 = load i32, ptr %10, align 4
  store i32 %20, ptr %4, align 4
  br label %.sink.split

21:                                               ; preds = %wtap_dump_file_fdopen.exit
  store ptr %.0.i, ptr %7, align 8
  %22 = load i32, ptr %11, align 4
  %.not.i = icmp eq i32 %22, 0
  br i1 %.not.i, label %23, label %32

23:                                               ; preds = %21
  %24 = tail call i32 @fileno(ptr noundef nonnull %.0.i) #24
  %25 = tail call i64 @lseek(i32 noundef %24, i64 noundef 1, i32 noundef 1) #24
  %26 = icmp eq i64 %25, -1
  br i1 %26, label %32, label %.thread.i

.thread.i:                                        ; preds = %23
  %27 = tail call i64 @lseek(i32 noundef %24, i64 noundef 0, i32 noundef 0) #24
  %28 = load ptr, ptr @file_type_subtype_table, align 8
  %29 = getelementptr inbounds nuw i8, ptr %7, i64 8
  %30 = load i32, ptr %29, align 8
  %31 = sext i32 %30 to i64
  br label %40

32:                                               ; preds = %23, %21
  %33 = load ptr, ptr @file_type_subtype_table, align 8
  %34 = getelementptr inbounds nuw i8, ptr %7, i64 8
  %35 = load i32, ptr %34, align 8
  %36 = sext i32 %35 to i64
  %37 = getelementptr %struct.file_type_subtype_info, ptr %33, i64 %36, i32 4
  %38 = load i8, ptr %37, align 8, !range !34, !noundef !35
  %39 = trunc nuw i8 %38 to i1
  br i1 %39, label %wtap_dump_open_finish.exit.thread, label %40

wtap_dump_open_finish.exit.thread:                ; preds = %32
  store i32 -5, ptr %4, align 4
  br label %52

40:                                               ; preds = %32, %.thread.i
  %41 = phi i64 [ %31, %.thread.i ], [ %36, %32 ]
  %42 = phi ptr [ %28, %.thread.i ], [ %33, %32 ]
  %43 = getelementptr %struct.file_type_subtype_info, ptr %42, i64 %41, i32 9
  %44 = load ptr, ptr %43, align 8
  %.not16.i = icmp eq ptr %44, null
  br i1 %.not16.i, label %wtap_dump_open_finish.exit, label %45

45:                                               ; preds = %40
  %46 = getelementptr inbounds nuw i8, ptr %44, i64 8
  %47 = load ptr, ptr %46, align 8
  %48 = getelementptr inbounds nuw i8, ptr %7, i64 48
  store ptr %47, ptr %48, align 8
  br label %wtap_dump_open_finish.exit

wtap_dump_open_finish.exit:                       ; preds = %40, %45
  %49 = getelementptr %struct.file_type_subtype_info, ptr %42, i64 %41, i32 8
  %50 = load ptr, ptr %49, align 8
  %51 = tail call zeroext i1 %50(ptr noundef nonnull %7, ptr noundef %4, ptr noundef %5)
  br i1 %51, label %61, label %52

52:                                               ; preds = %wtap_dump_open_finish.exit.thread, %wtap_dump_open_finish.exit
  %53 = load i32, ptr %11, align 4
  %54 = load ptr, ptr %7, align 8
  switch i32 %53, label %59 [
    i32 1, label %55
    i32 3, label %57
  ]

55:                                               ; preds = %52
  %56 = tail call i32 @gzwfile_close(ptr noundef %54)
  br label %.sink.split

57:                                               ; preds = %52
  %58 = tail call i32 @lz4wfile_close(ptr noundef %54)
  br label %.sink.split

59:                                               ; preds = %52
  %60 = tail call i32 @fclose(ptr noundef %54)
  br label %.sink.split

.sink.split:                                      ; preds = %59, %57, %55, %19
  tail call void @g_free(ptr noundef nonnull %7)
  br label %61

61:                                               ; preds = %.sink.split, %wtap_dump_open_finish.exit, %6
  %.0 = phi ptr [ null, %6 ], [ %7, %wtap_dump_open_finish.exit ], [ null, %.sink.split ]
  ret ptr %.0
}